; Function Attrs: nounwind uwtable
define noalias nonnull ptr @l_Lean_ParserCompiler_instInhabitedCombinatorAttribute___lambda__1(ptr noundef readnone captures(none) %0, ptr noundef readnone captures(none) %1, i8 noundef zeroext %2, ptr noundef readnone captures(none) %3, ptr noundef readnone captures(none) %4, ptr noundef %5) local_unnamed_addr #0 {
  %7 = load ptr, ptr @l_Lean_ParserCompiler_instInhabitedCombinatorAttribute___lambda__1___closed__2, align 8, !tbaa !4
  tail call void @lean_inc_heartbeat() #6
  %8 = tail call noalias ptr @mi_malloc_small(i64 noundef 24) #6
  %9 = icmp eq ptr %8, null
  br i1 %9, label %10, label %lean_alloc_ctor.exit

10:                                               ; preds = %6
  tail call void @lean_internal_panic_out_of_memory() #7
  unreachable

lean_alloc_ctor.exit:                             ; preds = %6
  %11 = getelementptr inbounds nuw i8, ptr %8, i64 4
  store i32 1, ptr %8, align 4, !tbaa !8
  store i32 16908312, ptr %11, align 4
  %12 = getelementptr inbounds nuw i8, ptr %8, i64 8
  store ptr %7, ptr %12, align 8, !tbaa !4
  %13 = getelementptr inbounds nuw i8, ptr %8, i64 16
  store ptr %5, ptr %13, align 8, !tbaa !4
  ret ptr %8
}